Certificate:
    Data:
        Version: 3 (0x2)
        Serial Number: 1 (0x1)
    Signature Algorithm: sha256WithRSAEncryption
        Issuer: C=NL, O=Yahsi, OU=Yahsi Certificate Authority, CN=Yahsi Root CA
        Validity
            Not Before: Mar 20 17:03:02 2019 GMT
            Not After : Dec 31 23:59:59 2030 GMT
        Subject: C=NL, O=Yahsi, OU=Yahsi Certificate Authority, CN=Yahsi Root CA
        Subject Public Key Info:
            Public Key Algorithm: rsaEncryption
                Public-Key: (4096 bit)
                Modulus:
                    00:a7:c3:b9:1f:51:01:ff:c2:90:0c:fc:a7:fe:75:
                    25:5e:b6:c2:27:7c:e7:d8:d6:4e:8c:f0:31:62:b6:
                    70:2f:a3:18:d5:21:f1:c9:e0:c2:da:45:84:91:37:
                    11:8b:e2:e5:14:2d:24:0c:f1:ba:19:54:52:8f:82:
                    c6:18:b1:a6:9b:c5:7f:60:ae:69:75:8f:59:9f:71:
                    7a:02:fa:08:cb:0e:b6:aa:18:25:19:3c:37:81:2e:
                    80:66:4d:bb:8c:d0:b7:c3:a5:b5:e1:b0:8b:c0:1c:
                    13:5a:f3:41:4b:fe:e0:61:1a:77:af:d0:a4:d8:fb:
                    39:e0:e8:1b:48:52:b9:b3:a7:60:dc:da:f0:e9:58:
                    88:b5:3c:0b:19:af:55:77:71:0c:82:d5:ca:c7:76:
                    c5:25:56:f9:19:59:66:cb:e4:e0:fc:10:5f:8c:86:
                    1d:63:5c:23:8d:aa:50:7a:a4:bb:49:0d:a7:30:8d:
                    4a:fe:75:85:e5:2b:c2:9c:b0:58:8a:df:7a:3a:7d:
                    3d:89:48:36:c6:d4:f9:1f:f7:80:58:cc:6f:29:36:
                    02:da:b7:44:bf:ff:9b:56:b2:77:01:b0:81:48:da:
                    74:1e:0d:37:fa:70:5a:3a:e9:6d:b3:07:09:d1:5e:
                    79:ef:72:53:ec:69:4b:6e:20:53:06:64:c9:eb:59:
                    73:b5:f1:ba:65:21:c0:6d:7f:2c:40:9e:4b:d2:cc:
                    ab:01:e7:d5:55:dd:5d:11:15:ce:df:df:05:a6:85:
                    29:63:6d:55:39:3e:51:37:88:f9:d6:6f:49:5e:a9:
                    0e:53:ea:e8:09:0a:8a:ca:9b:f0:22:0f:12:55:7a:
                    01:01:10:a1:af:01:45:2b:d1:71:33:da:86:29:3a:
                    39:42:bb:ff:26:fb:ad:2b:3d:5a:4b:39:0c:d6:e6:
                    50:4e:78:72:50:dd:4a:f1:1b:32:a4:3c:70:5b:8d:
                    21:b6:9d:36:ba:78:49:84:ce:42:0e:ef:85:0c:f3:
                    19:b3:f4:e5:a5:5d:f4:00:3b:be:43:20:5e:e7:a2:
                    91:0b:a7:a0:f4:fe:31:60:ca:de:fe:5c:43:b5:48:
                    8e:b1:c1:31:61:cf:26:bf:54:7a:bf:df:1c:88:02:
                    c1:ce:05:57:6a:db:bf:3e:3a:2e:50:9c:6f:01:84:
                    4f:71:11:dc:a1:51:18:6d:2c:5d:bd:0a:a8:d4:ad:
                    b6:0c:0c:29:fd:2f:c8:8e:e7:86:ea:1f:7c:95:f3:
                    ea:a5:9c:10:38:5b:f8:18:27:73:28:b3:88:05:67:
                    49:14:ad:ec:bc:56:b4:25:b0:1b:a6:31:d1:51:fc:
                    ba:3b:8e:47:bc:dd:37:58:90:1b:73:26:9d:7c:c8:
                    c0:ef:a1
                Exponent: 65537 (0x10001)
        X509v3 extensions:
            X509v3 Key Usage: critical
                Certificate Sign, CRL Sign
            X509v3 Basic Constraints: critical
                CA:TRUE
            X509v3 Subject Key Identifier: 
                2E:55:88:B7:77:19:F3:B0:EF:DA:2E:98:90:62:61:74:10:64:3D:5D
            X509v3 Authority Key Identifier: 
                keyid:2E:55:88:B7:77:19:F3:B0:EF:DA:2E:98:90:62:61:74:10:64:3D:5D

    Signature Algorithm: sha256WithRSAEncryption
         21:1e:67:d0:93:ad:1e:c3:28:cb:a7:72:d0:9b:31:cc:5d:61:
         1e:29:1d:51:fc:29:8d:d7:e5:58:4d:e9:bb:de:a7:d8:46:de:
         12:d6:50:8a:ee:a3:7d:c1:78:4b:22:61:50:a5:1b:59:38:90:
         43:84:2a:cc:e3:70:e3:c1:d7:23:b3:bf:37:da:61:46:68:dd:
         8c:1e:ee:17:6f:ef:35:50:c5:3f:31:3b:75:b3:18:31:35:7d:
         cc:fb:9a:8a:f7:ab:e4:6c:f5:35:b0:ae:2f:6d:40:38:5f:1b:
         1d:a1:18:77:9c:19:33:4e:20:d4:68:25:6f:de:b1:2b:35:57:
         d8:0a:e9:d1:5b:f8:e0:b2:29:40:b3:9d:84:df:75:0e:19:c1:
         4d:01:60:8d:02:f7:22:80:92:28:79:2d:88:d9:67:2c:71:58:
         01:c9:0f:75:e8:8b:b3:7c:bc:6c:fc:6f:95:16:f0:74:e7:bb:
         c6:a6:0b:7c:57:f0:01:a7:76:4d:16:b5:1a:1a:f5:0c:24:83:
         f8:20:8b:15:07:98:32:2b:ef:e2:87:14:c5:67:13:a0:c7:05:
         15:9c:99:01:c7:cc:5d:2e:25:08:15:37:70:8a:ce:1a:56:23:
         66:ad:bd:8c:e8:a3:7f:ff:68:83:88:13:df:4b:76:bb:64:f6:
         ef:1f:88:bf:ce:92:51:d8:58:97:ae:07:8b:9b:72:12:ff:34:
         bd:b2:32:d9:4b:f1:fe:03:f3:d8:66:47:26:26:55:7d:77:7b:
         c0:55:aa:2e:1a:95:8d:60:8f:e7:23:3e:20:c4:4a:8e:4f:e7:
         99:3d:c2:99:c5:10:8d:18:5b:df:bf:51:2c:f9:f1:d4:36:c8:
         92:3a:7d:90:e0:c7:78:27:f3:cd:ed:45:43:e5:b4:e8:34:51:
         7a:99:c8:8b:06:94:14:08:b9:d0:92:67:4e:74:54:29:bd:70:
         51:5d:10:49:28:d4:8a:d7:24:14:2b:8d:a4:c9:cc:03:8e:ab:
         96:e5:c8:48:43:19:e4:b7:0e:a5:3c:73:a2:c0:b4:69:12:77:
         80:9c:2e:a9:33:4b:81:73:cf:25:68:a9:eb:66:e4:35:4d:7d:
         b8:c4:b0:b9:41:6f:47:17:59:1b:87:c0:0d:e0:56:5d:ee:64:
         bc:ef:24:7d:ad:99:a3:b3:d1:73:d7:51:44:df:9b:ed:8c:01:
         ae:33:1f:53:50:4b:ce:56:03:73:96:41:b1:ef:b0:df:ac:f5:
         3b:3a:e5:08:a2:36:46:85:6c:e4:67:7c:4a:62:5a:31:02:22:
         30:f5:92:8e:6d:78:06:7e:78:5b:b9:25:06:2c:9f:d6:7c:08:
         eb:6e:07:f1:52:1a:11:44
-----BEGIN CERTIFICATE-----
MIIFlDCCA3ygAwIBAgIBATANBgkqhkiG9w0BAQsFADBbMQswCQYDVQQGEwJOTDEO
MAwGA1UECgwFWWFoc2kxJDAiBgNVBAsMG1lhaHNpIENlcnRpZmljYXRlIEF1dGhv
cml0eTEWMBQGA1UEAwwNWWFoc2kgUm9vdCBDQTAeFw0xOTAzMjAxNzAzMDJaFw0z
MDEyMzEyMzU5NTlaMFsxCzAJBgNVBAYTAk5MMQ4wDAYDVQQKDAVZYWhzaTEkMCIG
A1UECwwbWWFoc2kgQ2VydGlmaWNhdGUgQXV0aG9yaXR5MRYwFAYDVQQDDA1ZYWhz
aSBSb290IENBMIICIjANBgkqhkiG9w0BAQEFAAOCAg8AMIICCgKCAgEAp8O5H1EB
/8KQDPyn/nUlXrbCJ3zn2NZOjPAxYrZwL6MY1SHxyeDC2kWEkTcRi+LlFC0kDPG6
GVRSj4LGGLGmm8V/YK5pdY9Zn3F6AvoIyw62qhglGTw3gS6AZk27jNC3w6W14bCL
wBwTWvNBS/7gYRp3r9Ck2Ps54OgbSFK5s6dg3Nrw6ViItTwLGa9Vd3EMgtXKx3bF
JVb5GVlmy+Tg/BBfjIYdY1wjjapQeqS7SQ2nMI1K/nWF5SvCnLBYit96On09iUg2
xtT5H/eAWMxvKTYC2rdEv/+bVrJ3AbCBSNp0Hg03+nBaOultswcJ0V5573JT7GlL
biBTBmTJ61lztfG6ZSHAbX8sQJ5L0syrAefVVd1dERXO398FpoUpY21VOT5RN4j5
1m9JXqkOU+roCQqKypvwIg8SVXoBARChrwFFK9FxM9qGKTo5Qrv/JvutKz1aSzkM
1uZQTnhyUN1K8RsypDxwW40htp02unhJhM5CDu+FDPMZs/TlpV30ADu+QyBe56KR
C6eg9P4xYMre/lxDtUiOscExYc8mv1R6v98ciALBzgVXatu/PjouUJxvAYRPcRHc
oVEYbSxdvQqo1K22DAwp/S/IjueG6h98lfPqpZwQOFv4GCdzKLOIBWdJFK3svFa0
JbAbpjHRUfy6O45HvN03WJAbcyadfMjA76ECAwEAAaNjMGEwDgYDVR0PAQH/BAQD
AgEGMA8GA1UdEwEB/wQFMAMBAf8wHQYDVR0OBBYEFC5ViLd3GfOw79oumJBiYXQQ
ZD1dMB8GA1UdIwQYMBaAFC5ViLd3GfOw79oumJBiYXQQZD1dMA0GCSqGSIb3DQEB
CwUAA4ICAQAhHmfQk60ewyjLp3LQmzHMXWEeKR1R/CmN1+VYTem73qfYRt4S1lCK
7qN9wXhLImFQpRtZOJBDhCrM43Djwdcjs7832mFGaN2MHu4Xb+81UMU/MTt1sxgx
NX3M+5qK96vkbPU1sK4vbUA4XxsdoRh3nBkzTiDUaCVv3rErNVfYCunRW/jgsilA
s52E33UOGcFNAWCNAvcigJIoeS2I2WcscVgByQ916IuzfLxs/G+VFvB057vGpgt8
V/ABp3ZNFrUaGvUMJIP4IIsVB5gyK+/ihxTFZxOgxwUVnJkBx8xdLiUIFTdwis4a
ViNmrb2M6KN//2iDiBPfS3a7ZPbvH4i/zpJR2FiXrgeLm3IS/zS9sjLZS/H+A/PY
ZkcmJlV9d3vAVaouGpWNYI/nIz4gxEqOT+eZPcKZxRCNGFvfv1Es+fHUNsiSOn2Q
4Md4J/PN7UVD5bToNFF6mciLBpQUCLnQkmdOdFQpvXBRXRBJKNSK1yQUK42kycwD
jquW5chIQxnktw6lPHOiwLRpEneAnC6pM0uBc88laKnrZuQ1TX24xLC5QW9HF1kb
h8AN4FZd7mS87yR9rZmjs9Fz11FE35vtjAGuMx9TUEvOVgNzlkGx77DfrPU7OuUI
ojZGhWzkZ3xKYloxAiIw9ZKObXgGfnhbuSUGLJ/WfAjrbgfxUhoRRA==
-----END CERTIFICATE-----
